target datalayout = "e-m:e-p270:32:32-p271:32:32-p272:64:64-i64:64-i128:128-f80:128-n8:16:32:64-S128"
target triple = "x86_64-unknown-linux-gnu"

%"class.grpc_core::Timestamp" = type { i64 }
%class.anon = type { ptr, %"class.grpc_core::URI", %"class.grpc_core::Timestamp", ptr, ptr }
%"class.grpc_core::URI" = type { %"class.std::__cxx11::basic_string", %"class.std::__cxx11::basic_string", %"class.std::__cxx11::basic_string", %"class.std::map", %"class.std::vector", %"class.std::__cxx11::basic_string" }
%"class.std::map" = type { %"class.std::_Rb_tree" }
%"class.std::_Rb_tree" = type { %"struct.std::_Rb_tree<std::basic_string_view<char>, std::pair<const std::basic_string_view<char>, std::basic_string_view<char>>, std::_Select1st<std::pair<const std::basic_string_view<char>, std::basic_string_view<char>>>, std::less<std::basic_string_view<char>>>::_Rb_tree_impl" }
%"struct.std::_Rb_tree<std::basic_string_view<char>, std::pair<const std::basic_string_view<char>, std::basic_string_view<char>>, std::_Select1st<std::pair<const std::basic_string_view<char>, std::basic_string_view<char>>>, std::less<std::basic_string_view<char>>>::_Rb_tree_impl" = type { %"struct.std::_Rb_tree_key_compare", %"struct.std::_Rb_tree_header" }
%"struct.std::_Rb_tree_key_compare" = type { %"struct.std::less" }
%"struct.std::less" = type { i8 }
%"struct.std::_Rb_tree_header" = type { %"struct.std::_Rb_tree_node_base", i64 }
%"struct.std::_Rb_tree_node_base" = type { i32, ptr, ptr, ptr }
%"class.std::vector" = type { %"struct.std::_Vector_base" }
%"struct.std::_Vector_base" = type { %"struct.std::_Vector_base<grpc_core::URI::QueryParam, std::allocator<grpc_core::URI::QueryParam>>::_Vector_impl" }
%"struct.std::_Vector_base<grpc_core::URI::QueryParam, std::allocator<grpc_core::URI::QueryParam>>::_Vector_impl" = type { %"struct.std::_Vector_base<grpc_core::URI::QueryParam, std::allocator<grpc_core::URI::QueryParam>>::_Vector_impl_data" }
%"struct.std::_Vector_base<grpc_core::URI::QueryParam, std::allocator<grpc_core::URI::QueryParam>>::_Vector_impl_data" = type { ptr, ptr, ptr }
%"class.std::__cxx11::basic_string" = type { %"struct.std::__cxx11::basic_string<char>::_Alloc_hider", i64, %union.anon }
%"struct.std::__cxx11::basic_string<char>::_Alloc_hider" = type { ptr }
%union.anon = type { i64, [8 x i8] }

@_ZN9grpc_core12_GLOBAL__N_114g_get_overrideE = internal global ptr null, align 8

; Function Attrs: mustprogress nounwind uwtable
define linkonce_odr noundef nonnull align 8 dereferenceable(32) ptr @_ZNK9grpc_core3URI4pathB5cxx11Ev(ptr noundef nonnull align 8 dereferenceable(200) %this) #5 comdat align 2 {
entry:
  %this.addr = alloca ptr, align 8
  store ptr %this, ptr %this.addr, align 8
  %this1 = load ptr, ptr %this.addr, align 8
  %path_ = getelementptr inbounds %"class.grpc_core::URI", ptr %this1, i32 0, i32 2
  ret ptr %path_
}

; Function Attrs: mustprogress nounwind uwtable
define linkonce_odr noundef nonnull align 8 dereferenceable(32) ptr @_ZNK9grpc_core3URI9authorityB5cxx11Ev(ptr noundef nonnull align 8 dereferenceable(200) %this) #5 comdat align 2 {
entry:
  %this.addr = alloca ptr, align 8
  store ptr %this, ptr %this.addr, align 8
  %this1 = load ptr, ptr %this.addr, align 8
  %authority_ = getelementptr inbounds %"class.grpc_core::URI", ptr %this1, i32 0, i32 1
  ret ptr %authority_
}

; Function Attrs: mustprogress uwtable
define internal void @"_ZZN9grpc_core11HttpRequest3GetENS_3URIEPK17grpc_channel_argsP19grpc_polling_entityPK17grpc_http_requestNS_9TimestampEP12grpc_closureP18grpc_http_responseNS_13RefCountedPtrI24grpc_channel_credentialsEEENK3$_0clEv"(ptr noundef nonnull align 8 dereferenceable(232) %this) #4 align 2 {
entry:
  %this.addr = alloca ptr, align 8
  %agg.tmp = alloca %"class.grpc_core::Timestamp", align 8
  store ptr %this, ptr %this.addr, align 8
  %this1 = load ptr, ptr %this.addr, align 8
  %0 = load ptr, ptr @_ZN9grpc_core12_GLOBAL__N_114g_get_overrideE, align 8
  %1 = getelementptr inbounds %class.anon, ptr %this1, i32 0, i32 0
  %2 = load ptr, ptr %1, align 8
  %3 = getelementptr inbounds %class.anon, ptr %this1, i32 0, i32 1
  %call = call noundef nonnull align 8 dereferenceable(32) ptr @_ZNK9grpc_core3URI9authorityB5cxx11Ev(ptr noundef nonnull align 8 dereferenceable(200) %3)
  %call2 = call noundef ptr @_ZNKSt7__cxx1112basic_stringIcSt11char_traitsIcESaIcEE5c_strEv(ptr noundef nonnull align 8 dereferenceable(32) %call) #3
  %4 = getelementptr inbounds %class.anon, ptr %this1, i32 0, i32 1
  %call3 = call noundef nonnull align 8 dereferenceable(32) ptr @_ZNK9grpc_core3URI4pathB5cxx11Ev(ptr noundef nonnull align 8 dereferenceable(200) %4)
  %call4 = call noundef ptr @_ZNKSt7__cxx1112basic_stringIcSt11char_traitsIcESaIcEE5c_strEv(ptr noundef nonnull align 8 dereferenceable(32) %call3) #3
  %5 = getelementptr inbounds %class.anon, ptr %this1, i32 0, i32 2
  call void @llvm.memcpy.p0.p0.i64(ptr align 8 %agg.tmp, ptr align 8 %5, i64 8, i1 false)
  %6 = getelementptr inbounds %class.anon, ptr %this1, i32 0, i32 3
  %7 = load ptr, ptr %6, align 8
  %8 = getelementptr inbounds %class.anon, ptr %this1, i32 0, i32 4
  %9 = load ptr, ptr %8, align 8
  %coerce.dive = getelementptr inbounds %"class.grpc_core::Timestamp", ptr %agg.tmp, i32 0, i32 0
  %10 = load i64, ptr %coerce.dive, align 8
  %call5 = call noundef i32 %0(ptr noundef %2, ptr noundef %call2, ptr noundef %call4, i64 %10, ptr noundef %7, ptr noundef %9)
  ret void
}

; Function Attrs: mustprogress nounwind uwtable
define linkonce_odr noundef ptr @_ZNKSt9_Any_data9_M_accessEv(ptr noundef nonnull align 8 dereferenceable(16) %this) #5 comdat align 2 {
entry:
  %this.addr = alloca ptr, align 8
  store ptr %this, ptr %this.addr, align 8
  %this1 = load ptr, ptr %this.addr, align 8
  %arrayidx = getelementptr inbounds [16 x i8], ptr %this1, i64 0, i64 0
  ret ptr %arrayidx
}

; Function Attrs: mustprogress uwtable
define internal void @"_ZSt13__invoke_implIvRZN9grpc_core11HttpRequest3GetENS0_3URIEPK17grpc_channel_argsP19grpc_polling_entityPK17grpc_http_requestNS0_9TimestampEP12grpc_closureP18grpc_http_responseNS0_13RefCountedPtrI24grpc_channel_credentialsEEE3$_0JEET_St14__invoke_otherOT0_DpOT1_"(ptr noundef nonnull align 8 dereferenceable(232) %__f) #4 {
entry:
  %__f.addr = alloca ptr, align 8
  store ptr %__f, ptr %__f.addr, align 8
  %0 = load ptr, ptr %__f.addr, align 8
  call void @"_ZZN9grpc_core11HttpRequest3GetENS_3URIEPK17grpc_channel_argsP19grpc_polling_entityPK17grpc_http_requestNS_9TimestampEP12grpc_closureP18grpc_http_responseNS_13RefCountedPtrI24grpc_channel_credentialsEEENK3$_0clEv"(ptr noundef nonnull align 8 dereferenceable(232) %0)
  ret void
}

; Function Attrs: mustprogress nounwind uwtable
define internal noundef nonnull align 8 dereferenceable(8) ptr @"_ZNKSt9_Any_data9_M_accessIPZN9grpc_core11HttpRequest3GetENS1_3URIEPK17grpc_channel_argsP19grpc_polling_entityPK17grpc_http_requestNS1_9TimestampEP12grpc_closureP18grpc_http_responseNS1_13RefCountedPtrI24grpc_channel_credentialsEEE3$_0EERKT_v"(ptr noundef nonnull align 8 dereferenceable(16) %this) #5 align 2 {
entry:
  %this.addr = alloca ptr, align 8
  store ptr %this, ptr %this.addr, align 8
  %this1 = load ptr, ptr %this.addr, align 8
  %call = call noundef ptr @_ZNKSt9_Any_data9_M_accessEv(ptr noundef nonnull align 8 dereferenceable(16) %this1) #3
  ret ptr %call
}

; Function Attrs: mustprogress uwtable
define internal void @"_ZSt10__invoke_rIvRZN9grpc_core11HttpRequest3GetENS0_3URIEPK17grpc_channel_argsP19grpc_polling_entityPK17grpc_http_requestNS0_9TimestampEP12grpc_closureP18grpc_http_responseNS0_13RefCountedPtrI24grpc_channel_credentialsEEE3$_0JEENSt9enable_ifIX16is_invocable_r_vIT_T0_DpT1_EESM_E4typeEOSN_DpOSO_"(ptr noundef nonnull align 8 dereferenceable(232) %__fn) #4 {
entry:
  %__fn.addr = alloca ptr, align 8
  store ptr %__fn, ptr %__fn.addr, align 8
  %0 = load ptr, ptr %__fn.addr, align 8
  call void @"_ZSt13__invoke_implIvRZN9grpc_core11HttpRequest3GetENS0_3URIEPK17grpc_channel_argsP19grpc_polling_entityPK17grpc_http_requestNS0_9TimestampEP12grpc_closureP18grpc_http_responseNS0_13RefCountedPtrI24grpc_channel_credentialsEEE3$_0JEET_St14__invoke_otherOT0_DpOT1_"(ptr noundef nonnull align 8 dereferenceable(232) %0)
  ret void
}

; Function Attrs: mustprogress nounwind uwtable
define internal noundef ptr @"_ZNSt14_Function_base13_Base_managerIZN9grpc_core11HttpRequest3GetENS1_3URIEPK17grpc_channel_argsP19grpc_polling_entityPK17grpc_http_requestNS1_9TimestampEP12grpc_closureP18grpc_http_responseNS1_13RefCountedPtrI24grpc_channel_credentialsEEE3$_0E14_M_get_pointerERKSt9_Any_data"(ptr noundef nonnull align 8 dereferenceable(16) %__source) #5 align 2 {
entry:
  %__source.addr = alloca ptr, align 8
  store ptr %__source, ptr %__source.addr, align 8
  %0 = load ptr, ptr %__source.addr, align 8
  %call = call noundef nonnull align 8 dereferenceable(8) ptr @"_ZNKSt9_Any_data9_M_accessIPZN9grpc_core11HttpRequest3GetENS1_3URIEPK17grpc_channel_argsP19grpc_polling_entityPK17grpc_http_requestNS1_9TimestampEP12grpc_closureP18grpc_http_responseNS1_13RefCountedPtrI24grpc_channel_credentialsEEE3$_0EERKT_v"(ptr noundef nonnull align 8 dereferenceable(16) %0) #3
  %1 = load ptr, ptr %call, align 8
  ret ptr %1
}

; Function Attrs: mustprogress uwtable
define internal void @"_ZNSt17_Function_handlerIFvvEZN9grpc_core11HttpRequest3GetENS1_3URIEPK17grpc_channel_argsP19grpc_polling_entityPK17grpc_http_requestNS1_9TimestampEP12grpc_closureP18grpc_http_responseNS1_13RefCountedPtrI24grpc_channel_credentialsEEE3$_0E9_M_invokeERKSt9_Any_data"(ptr noundef nonnull align 8 dereferenceable(16) %__functor) #4 align 2 {
entry:
  %__functor.addr = alloca ptr, align 8
  store ptr %__functor, ptr %__functor.addr, align 8
  %0 = load ptr, ptr %__functor.addr, align 8
  %call = call noundef ptr @"_ZNSt14_Function_base13_Base_managerIZN9grpc_core11HttpRequest3GetENS1_3URIEPK17grpc_channel_argsP19grpc_polling_entityPK17grpc_http_requestNS1_9TimestampEP12grpc_closureP18grpc_http_responseNS1_13RefCountedPtrI24grpc_channel_credentialsEEE3$_0E14_M_get_pointerERKSt9_Any_data"(ptr noundef nonnull align 8 dereferenceable(16) %0) #3
  call void @"_ZSt10__invoke_rIvRZN9grpc_core11HttpRequest3GetENS0_3URIEPK17grpc_channel_argsP19grpc_polling_entityPK17grpc_http_requestNS0_9TimestampEP12grpc_closureP18grpc_http_responseNS0_13RefCountedPtrI24grpc_channel_credentialsEEE3$_0JEENSt9enable_ifIX16is_invocable_r_vIT_T0_DpT1_EESM_E4typeEOSN_DpOSO_"(ptr noundef nonnull align 8 dereferenceable(232) %call)
  ret void
}