; Function Attrs: mustprogress uwtable
define internal void @"_ZNSt17_Function_handlerIFvvEZN9grpc_core11HttpRequest3GetENS1_3URIEPK17grpc_channel_argsP19grpc_polling_entityPK17grpc_http_requestNS1_9TimestampEP12grpc_closureP18grpc_http_responseNS1_13RefCountedPtrI24grpc_channel_credentialsEEE3$_0E9_M_invokeERKSt9_Any_data"(ptr nocapture noundef nonnull readonly align 8 dereferenceable(16) %__functor) #3 align 2 {
entry:
  %__functor.val = load ptr, ptr %__functor, align 8
  %0 = load ptr, ptr @_ZN9grpc_core12_GLOBAL__N_114g_get_overrideE, align 8
  %1 = load ptr, ptr %__functor.val, align 8
  %authority_.i.i.i.i = getelementptr inbounds i8, ptr %__functor.val, i64 40
  %call2.i.i.i = tail call noundef ptr @_ZNKSt7__cxx1112basic_stringIcSt11char_traitsIcESaIcEE5c_strEv(ptr noundef nonnull align 8 dereferenceable(32) %authority_.i.i.i.i) #16
  %path_.i.i.i.i = getelementptr inbounds i8, ptr %__functor.val, i64 72
  %call4.i.i.i = tail call noundef ptr @_ZNKSt7__cxx1112basic_stringIcSt11char_traitsIcESaIcEE5c_strEv(ptr noundef nonnull align 8 dereferenceable(32) %path_.i.i.i.i) #16
  %2 = getelementptr inbounds i8, ptr %__functor.val, i64 208
  %agg.tmp.sroa.0.0.copyload.i.i.i = load i64, ptr %2, align 8
  %3 = getelementptr inbounds i8, ptr %__functor.val, i64 216
  %4 = load ptr, ptr %3, align 8
  %5 = getelementptr inbounds i8, ptr %__functor.val, i64 224
  %6 = load ptr, ptr %5, align 8
  %call5.i.i.i = tail call noundef i32 %0(ptr noundef %1, ptr noundef %call2.i.i.i, ptr noundef %call4.i.i.i, i64 %agg.tmp.sroa.0.0.copyload.i.i.i, ptr noundef %4, ptr noundef %6)
  ret void
}